; Function Attrs: mustprogress nofree norecurse nosync nounwind willreturn memory(readwrite, inaccessiblemem: none) uwtable
define void @_ZN6icu_7521RuleCharacterIterator8_advanceEi(ptr nocapture noundef nonnull align 8 dereferenceable(36) %this, i32 noundef %count) local_unnamed_addr #3 align 2 {
entry:
  %buf = getelementptr inbounds i8, ptr %this, i64 24
  %0 = load ptr, ptr %buf, align 8
  %cmp.not = icmp eq ptr %0, null
  br i1 %cmp.not, label %if.else, label %if.then

if.then:                                          ; preds = %entry
  %bufPos = getelementptr inbounds i8, ptr %this, i64 32
  %1 = load i32, ptr %bufPos, align 8
  %add = add nsw i32 %1, %count
  store i32 %add, ptr %bufPos, align 8
  %fUnion.i.i = getelementptr inbounds i8, ptr %0, i64 8
  %2 = load i16, ptr %fUnion.i.i, align 8
  %cmp.i.i = icmp slt i16 %2, 0
  %3 = ashr i16 %2, 5
  %shr.i.i = sext i16 %3 to i32
  %fLength.i = getelementptr inbounds i8, ptr %0, i64 12
  %4 = load i32, ptr %fLength.i, align 4
  %cond.i = select i1 %cmp.i.i, i32 %4, i32 %shr.i.i
  %cmp4 = icmp eq i32 %add, %cond.i
  br i1 %cmp4, label %if.then5, label %if.end19

if.then5:                                         ; preds = %if.then
  store ptr null, ptr %buf, align 8
  br label %if.end19

if.else:                                          ; preds = %entry
  %pos = getelementptr inbounds i8, ptr %this, i64 8
  %5 = load ptr, ptr %pos, align 8
  %index.i = getelementptr inbounds i8, ptr %5, i64 8
  %6 = load i32, ptr %index.i, align 8
  %add9 = add nsw i32 %6, %count
  store i32 %add9, ptr %index.i, align 8
  %7 = load ptr, ptr %pos, align 8
  %index.i3 = getelementptr inbounds i8, ptr %7, i64 8
  %8 = load i32, ptr %index.i3, align 8
  %9 = load ptr, ptr %this, align 8
  %fUnion.i.i4 = getelementptr inbounds i8, ptr %9, i64 8
  %10 = load i16, ptr %fUnion.i.i4, align 8
  %cmp.i.i5 = icmp slt i16 %10, 0
  %11 = ashr i16 %10, 5
  %shr.i.i6 = sext i16 %11 to i32
  %fLength.i7 = getelementptr inbounds i8, ptr %9, i64 12
  %12 = load i32, ptr %fLength.i7, align 4
  %cond.i8 = select i1 %cmp.i.i5, i32 %12, i32 %shr.i.i6
  %cmp13 = icmp sgt i32 %8, %cond.i8
  br i1 %cmp13, label %if.then14, label %if.end19

if.then14:                                        ; preds = %if.else
  store i32 %cond.i8, ptr %index.i3, align 8
  br label %if.end19

if.end19:                                         ; preds = %if.else, %if.then14, %if.then, %if.then5
  ret void
}